; Function Attrs: null_pointer_is_valid sspstrong uwtable
define internal fastcc range(i32 23, 33) i32 @dissect_rdm_pd_preset_status(ptr noundef %0, ptr noundef %1, i8 noundef zeroext %2) unnamed_addr #1 {
  switch i8 %2, label %29 [
    i8 32, label %4
    i8 33, label %7
    i8 48, label %18
  ]

4:                                                ; preds = %3
  %5 = load i32, ptr @hf_rdm_pd_preset_status_scene_number, align 4
  %6 = tail call ptr @proto_tree_add_item(ptr noundef %1, i32 noundef %5, ptr noundef %0, i32 noundef 23, i32 noundef 2, i32 noundef 0)
  br label %29

7:                                                ; preds = %3
  %8 = load i32, ptr @hf_rdm_pd_preset_status_scene_number, align 4
  %9 = tail call ptr @proto_tree_add_item(ptr noundef %1, i32 noundef %8, ptr noundef %0, i32 noundef 23, i32 noundef 2, i32 noundef 0)
  %10 = load i32, ptr @hf_rdm_pd_preset_status_up_fade_time, align 4
  %11 = tail call ptr @proto_tree_add_item(ptr noundef %1, i32 noundef %10, ptr noundef %0, i32 noundef 25, i32 noundef 2, i32 noundef 0)
  %12 = load i32, ptr @hf_rdm_pd_preset_status_down_fade_time, align 4
  %13 = tail call ptr @proto_tree_add_item(ptr noundef %1, i32 noundef %12, ptr noundef %0, i32 noundef 27, i32 noundef 2, i32 noundef 0)
  %14 = load i32, ptr @hf_rdm_pd_preset_status_wait_time, align 4
  %15 = tail call ptr @proto_tree_add_item(ptr noundef %1, i32 noundef %14, ptr noundef %0, i32 noundef 29, i32 noundef 2, i32 noundef 0)
  %16 = load i32, ptr @hf_rdm_pd_preset_status_programmed, align 4
  %17 = tail call ptr @proto_tree_add_item(ptr noundef %1, i32 noundef %16, ptr noundef %0, i32 noundef 31, i32 noundef 1, i32 noundef 0)
  br label %29

18:                                               ; preds = %3
  %19 = load i32, ptr @hf_rdm_pd_preset_status_scene_number, align 4
  %20 = tail call ptr @proto_tree_add_item(ptr noundef %1, i32 noundef %19, ptr noundef %0, i32 noundef 23, i32 noundef 2, i32 noundef 0)
  %21 = load i32, ptr @hf_rdm_pd_preset_status_up_fade_time, align 4
  %22 = tail call ptr @proto_tree_add_item(ptr noundef %1, i32 noundef %21, ptr noundef %0, i32 noundef 25, i32 noundef 2, i32 noundef 0)
  %23 = load i32, ptr @hf_rdm_pd_preset_status_down_fade_time, align 4
  %24 = tail call ptr @proto_tree_add_item(ptr noundef %1, i32 noundef %23, ptr noundef %0, i32 noundef 27, i32 noundef 2, i32 noundef 0)
  %25 = load i32, ptr @hf_rdm_pd_preset_status_wait_time, align 4
  %26 = tail call ptr @proto_tree_add_item(ptr noundef %1, i32 noundef %25, ptr noundef %0, i32 noundef 29, i32 noundef 2, i32 noundef 0)
  %27 = load i32, ptr @hf_rdm_pd_preset_status_clear_preset, align 4
  %28 = tail call ptr @proto_tree_add_item(ptr noundef %1, i32 noundef %27, ptr noundef %0, i32 noundef 31, i32 noundef 1, i32 noundef 0)
  br label %29

29:                                               ; preds = %18, %7, %4, %3
  %.0 = phi i32 [ 23, %3 ], [ 32, %18 ], [ 32, %7 ], [ 25, %4 ]
  ret i32 %.0
}